; Function Attrs: mustprogress nofree norecurse nosync nounwind willreturn memory(readwrite, inaccessiblemem: none) uwtable
define void @Aig_ManFlipFirstPo(ptr noundef readonly captures(none) %0) local_unnamed_addr #10 {
  %2 = getelementptr i8, ptr %0, i64 24
  %.val = load ptr, ptr %2, align 8, !tbaa !26
  %3 = getelementptr i8, ptr %.val, i64 8
  %.val.val = load ptr, ptr %3, align 8, !tbaa !24
  %.val.val.val = load ptr, ptr %.val.val, align 8, !tbaa !33
  %4 = getelementptr inbounds nuw i8, ptr %.val.val.val, i64 8
  %5 = load ptr, ptr %4, align 8, !tbaa !45
  %6 = ptrtoint ptr %5 to i64
  %7 = xor i64 %6, 1
  %8 = inttoptr i64 %7 to ptr
  store ptr %8, ptr %4, align 8, !tbaa !45
  ret void
}